target datalayout = "e-m:e-p270:32:32-p271:32:32-p272:64:64-i64:64-i128:128-f80:128-n8:16:32:64-S128"
target triple = "x86_64-pc-linux-gnu"

%struct.Dch_Man_t_ = type { ptr, ptr, ptr, ptr, ptr, ptr, i32, ptr, ptr, i32, i32, ptr, ptr, ptr, i32, i32, i32, i32, i32, i32, i32, i32, i32, i32, i32, i64, i64, i64, i64, i64, i64, i64, i64, i64 }
%struct.Aig_Obj_t_ = type { %union.anon, ptr, ptr, i64, i32, i32, %union.anon.0 }
%union.anon = type { ptr }
%union.anon.0 = type { ptr }
%struct.Aig_Man_t_ = type { ptr, ptr, ptr, ptr, ptr, ptr, ptr, %struct.Aig_Obj_t_, i32, i32, i32, i32, i32, i32, [7 x i32], i32, ptr, i32, ptr, i32, ptr, i32, i32, i32, ptr, i32, i32, i32, i32, i32, ptr, ptr, i32, ptr, ptr, i32, ptr, ptr, i32, i32, i32, ptr, ptr, ptr, ptr, ptr, ptr, ptr, ptr, ptr, ptr, ptr, ptr, ptr, ptr, i32, ptr, ptr, ptr, ptr, i32, i64, i64, i64, ptr, ptr }
%struct.Vec_Ptr_t_ = type { i32, i32, ptr }

; Function Attrs: inlinehint nounwind uwtable
define internal ptr @Vec_PtrEntry(ptr noundef %0, i32 noundef %1) #2 {
  %3 = alloca ptr, align 8
  %4 = alloca i32, align 4
  store ptr %0, ptr %3, align 8, !tbaa !41
  store i32 %1, ptr %4, align 4, !tbaa !10
  %5 = load ptr, ptr %3, align 8, !tbaa !41
  %6 = getelementptr inbounds nuw %struct.Vec_Ptr_t_, ptr %5, i32 0, i32 2
  %7 = load ptr, ptr %6, align 8, !tbaa !46
  %8 = load i32, ptr %4, align 4, !tbaa !10
  %9 = sext i32 %8 to i64
  %10 = getelementptr inbounds ptr, ptr %7, i64 %9
  %11 = load ptr, ptr %10, align 8, !tbaa !42
  ret ptr %11
}

; Function Attrs: inlinehint nounwind uwtable
define internal i32 @Vec_PtrSize(ptr noundef %0) #2 {
  %2 = alloca ptr, align 8
  store ptr %0, ptr %2, align 8, !tbaa !41
  %3 = load ptr, ptr %2, align 8, !tbaa !41
  %4 = getelementptr inbounds nuw %struct.Vec_Ptr_t_, ptr %3, i32 0, i32 1
  %5 = load i32, ptr %4, align 4, !tbaa !43
  ret i32 %5
}

; Function Attrs: nounwind uwtable
define internal void @Vec_PtrSort(ptr noundef %0, ptr noundef %1) #0 {
  %3 = alloca ptr, align 8
  %4 = alloca ptr, align 8
  store ptr %0, ptr %3, align 8, !tbaa !41
  store ptr %1, ptr %4, align 8, !tbaa !42
  %5 = load ptr, ptr %3, align 8, !tbaa !41
  %6 = getelementptr inbounds nuw %struct.Vec_Ptr_t_, ptr %5, i32 0, i32 1
  %7 = load i32, ptr %6, align 4, !tbaa !43
  %8 = icmp slt i32 %7, 2
  br i1 %8, label %9, label %10

9:                                                ; preds = %2
  br label %30

10:                                               ; preds = %2
  %11 = load ptr, ptr %4, align 8, !tbaa !42
  %12 = icmp eq ptr %11, null
  br i1 %12, label %13, label %21

13:                                               ; preds = %10
  %14 = load ptr, ptr %3, align 8, !tbaa !41
  %15 = getelementptr inbounds nuw %struct.Vec_Ptr_t_, ptr %14, i32 0, i32 2
  %16 = load ptr, ptr %15, align 8, !tbaa !46
  %17 = load ptr, ptr %3, align 8, !tbaa !41
  %18 = getelementptr inbounds nuw %struct.Vec_Ptr_t_, ptr %17, i32 0, i32 1
  %19 = load i32, ptr %18, align 4, !tbaa !43
  %20 = sext i32 %19 to i64
  call void @qsort(ptr noundef %16, i64 noundef %20, i64 noundef 8, ptr noundef @Vec_PtrSortComparePtr)
  br label %30

21:                                               ; preds = %10
  %22 = load ptr, ptr %3, align 8, !tbaa !41
  %23 = getelementptr inbounds nuw %struct.Vec_Ptr_t_, ptr %22, i32 0, i32 2
  %24 = load ptr, ptr %23, align 8, !tbaa !46
  %25 = load ptr, ptr %3, align 8, !tbaa !41
  %26 = getelementptr inbounds nuw %struct.Vec_Ptr_t_, ptr %25, i32 0, i32 1
  %27 = load i32, ptr %26, align 4, !tbaa !43
  %28 = sext i32 %27 to i64
  %29 = load ptr, ptr %4, align 8, !tbaa !42
  call void @qsort(ptr noundef %24, i64 noundef %28, i64 noundef 8, ptr noundef %29)
  br label %30

30:                                               ; preds = %9, %21, %13
  ret void
}

; Function Attrs: inlinehint nounwind uwtable
define internal void @Aig_ObjSetTravIdCurrent(ptr noundef %0, ptr noundef %1) #2 {
  %3 = alloca ptr, align 8
  %4 = alloca ptr, align 8
  store ptr %0, ptr %3, align 8, !tbaa !28
  store ptr %1, ptr %4, align 8, !tbaa !8
  %5 = load ptr, ptr %3, align 8, !tbaa !28
  %6 = getelementptr inbounds nuw %struct.Aig_Man_t_, ptr %5, i32 0, i32 38
  %7 = load i32, ptr %6, align 8, !tbaa !30
  %8 = load ptr, ptr %4, align 8, !tbaa !8
  %9 = getelementptr inbounds nuw %struct.Aig_Obj_t_, ptr %8, i32 0, i32 4
  store i32 %7, ptr %9, align 8, !tbaa !29
  ret void
}

; Function Attrs: inlinehint nounwind uwtable
define internal ptr @Aig_ManConst1(ptr noundef %0) #2 {
  %2 = alloca ptr, align 8
  store ptr %0, ptr %2, align 8, !tbaa !28
  %3 = load ptr, ptr %2, align 8, !tbaa !28
  %4 = getelementptr inbounds nuw %struct.Aig_Man_t_, ptr %3, i32 0, i32 6
  %5 = load ptr, ptr %4, align 8, !tbaa !40
  ret ptr %5
}

; Function Attrs: inlinehint nounwind uwtable
define internal void @Vec_PtrClear(ptr noundef %0) #2 {
  %2 = alloca ptr, align 8
  store ptr %0, ptr %2, align 8, !tbaa !41
  %3 = load ptr, ptr %2, align 8, !tbaa !41
  %4 = getelementptr inbounds nuw %struct.Vec_Ptr_t_, ptr %3, i32 0, i32 1
  store i32 0, ptr %4, align 4, !tbaa !43
  ret void
}

; Function Attrs: nounwind uwtable
define void @Dch_ManCollectTfoCands(ptr noundef %0, ptr noundef %1, ptr noundef %2) #0 {
  %4 = alloca ptr, align 8
  %5 = alloca ptr, align 8
  %6 = alloca ptr, align 8
  %7 = alloca ptr, align 8
  %8 = alloca i32, align 4
  store ptr %0, ptr %4, align 8, !tbaa !3
  store ptr %1, ptr %5, align 8, !tbaa !8
  store ptr %2, ptr %6, align 8, !tbaa !8
  call void @llvm.lifetime.start.p0(i64 8, ptr %7) #7
  call void @llvm.lifetime.start.p0(i64 4, ptr %8) #7
  %9 = load ptr, ptr %4, align 8, !tbaa !3
  %10 = getelementptr inbounds nuw %struct.Dch_Man_t_, ptr %9, i32 0, i32 12
  %11 = load ptr, ptr %10, align 8, !tbaa !26
  call void @Vec_PtrClear(ptr noundef %11)
  %12 = load ptr, ptr %4, align 8, !tbaa !3
  %13 = getelementptr inbounds nuw %struct.Dch_Man_t_, ptr %12, i32 0, i32 13
  %14 = load ptr, ptr %13, align 8, !tbaa !27
  call void @Vec_PtrClear(ptr noundef %14)
  %15 = load ptr, ptr %4, align 8, !tbaa !3
  %16 = getelementptr inbounds nuw %struct.Dch_Man_t_, ptr %15, i32 0, i32 1
  %17 = load ptr, ptr %16, align 8, !tbaa !12
  call void @Aig_ManIncrementTravId(ptr noundef %17)
  %18 = load ptr, ptr %4, align 8, !tbaa !3
  %19 = getelementptr inbounds nuw %struct.Dch_Man_t_, ptr %18, i32 0, i32 1
  %20 = load ptr, ptr %19, align 8, !tbaa !12
  %21 = load ptr, ptr %4, align 8, !tbaa !3
  %22 = getelementptr inbounds nuw %struct.Dch_Man_t_, ptr %21, i32 0, i32 1
  %23 = load ptr, ptr %22, align 8, !tbaa !12
  %24 = call ptr @Aig_ManConst1(ptr noundef %23)
  call void @Aig_ObjSetTravIdCurrent(ptr noundef %20, ptr noundef %24)
  %25 = load ptr, ptr %4, align 8, !tbaa !3
  %26 = load ptr, ptr %5, align 8, !tbaa !8
  call void @Dch_ManCollectTfoCands_rec(ptr noundef %25, ptr noundef %26)
  %27 = load ptr, ptr %4, align 8, !tbaa !3
  %28 = load ptr, ptr %6, align 8, !tbaa !8
  call void @Dch_ManCollectTfoCands_rec(ptr noundef %27, ptr noundef %28)
  %29 = load ptr, ptr %4, align 8, !tbaa !3
  %30 = getelementptr inbounds nuw %struct.Dch_Man_t_, ptr %29, i32 0, i32 12
  %31 = load ptr, ptr %30, align 8, !tbaa !26
  call void @Vec_PtrSort(ptr noundef %31, ptr noundef @Aig_ObjCompareIdIncrease)
  %32 = load ptr, ptr %4, align 8, !tbaa !3
  %33 = getelementptr inbounds nuw %struct.Dch_Man_t_, ptr %32, i32 0, i32 13
  %34 = load ptr, ptr %33, align 8, !tbaa !27
  call void @Vec_PtrSort(ptr noundef %34, ptr noundef @Aig_ObjCompareIdIncrease)
  store i32 0, ptr %8, align 4, !tbaa !10
  br label %35

35:                                               ; preds = %56, %3
  %36 = load i32, ptr %8, align 4, !tbaa !10
  %37 = load ptr, ptr %4, align 8, !tbaa !3
  %38 = getelementptr inbounds nuw %struct.Dch_Man_t_, ptr %37, i32 0, i32 13
  %39 = load ptr, ptr %38, align 8, !tbaa !27
  %40 = call i32 @Vec_PtrSize(ptr noundef %39)
  %41 = icmp slt i32 %36, %40
  br i1 %41, label %42, label %48

42:                                               ; preds = %35
  %43 = load ptr, ptr %4, align 8, !tbaa !3
  %44 = getelementptr inbounds nuw %struct.Dch_Man_t_, ptr %43, i32 0, i32 13
  %45 = load ptr, ptr %44, align 8, !tbaa !27
  %46 = load i32, ptr %8, align 4, !tbaa !10
  %47 = call ptr @Vec_PtrEntry(ptr noundef %45, i32 noundef %46)
  store ptr %47, ptr %7, align 8, !tbaa !8
  br label %48

48:                                               ; preds = %42, %35
  %49 = phi i1 [ false, %35 ], [ true, %42 ]
  br i1 %49, label %50, label %59

50:                                               ; preds = %48
  %51 = load ptr, ptr %7, align 8, !tbaa !8
  %52 = getelementptr inbounds nuw %struct.Aig_Obj_t_, ptr %51, i32 0, i32 3
  %53 = load i64, ptr %52, align 8
  %54 = and i64 %53, -17
  %55 = or i64 %54, 0
  store i64 %55, ptr %52, align 8
  br label %56

56:                                               ; preds = %50
  %57 = load i32, ptr %8, align 4, !tbaa !10
  %58 = add nsw i32 %57, 1
  store i32 %58, ptr %8, align 4, !tbaa !10
  br label %35, !llvm.loop !47

59:                                               ; preds = %48
  call void @llvm.lifetime.end.p0(i64 4, ptr %8) #7
  call void @llvm.lifetime.end.p0(i64 8, ptr %7) #7
  ret void
}