; Function Attrs: nounwind uwtable
define void @Dch_ManCollectTfoCands(ptr noundef readonly captures(none) %0, ptr noundef %1, ptr noundef %2) local_unnamed_addr #0 {
  %4 = getelementptr inbounds nuw i8, ptr %0, i64 88
  %5 = load ptr, ptr %4, align 8, !tbaa !39
  %6 = getelementptr inbounds nuw i8, ptr %5, i64 4
  store i32 0, ptr %6, align 4, !tbaa !40
  %7 = getelementptr inbounds nuw i8, ptr %0, i64 96
  %8 = load ptr, ptr %7, align 8, !tbaa !42
  %9 = getelementptr inbounds nuw i8, ptr %8, i64 4
  store i32 0, ptr %9, align 4, !tbaa !40
  %10 = getelementptr inbounds nuw i8, ptr %0, i64 8
  %11 = load ptr, ptr %10, align 8, !tbaa !3
  tail call void @Aig_ManIncrementTravId(ptr noundef %11) #11
  %12 = load ptr, ptr %10, align 8, !tbaa !3
  %13 = getelementptr i8, ptr %12, i64 48
  %.val17 = load ptr, ptr %13, align 8, !tbaa !38
  %14 = getelementptr i8, ptr %12, i64 312
  %.val = load i32, ptr %14, align 8, !tbaa !17
  %15 = getelementptr inbounds nuw i8, ptr %.val17, i64 32
  store i32 %.val, ptr %15, align 8, !tbaa !26
  tail call void @Dch_ManCollectTfoCands_rec(ptr noundef %0, ptr noundef %1)
  tail call void @Dch_ManCollectTfoCands_rec(ptr noundef %0, ptr noundef %2)
  %16 = load ptr, ptr %4, align 8, !tbaa !39
  %17 = getelementptr inbounds nuw i8, ptr %16, i64 4
  %18 = load i32, ptr %17, align 4, !tbaa !40
  %19 = icmp slt i32 %18, 2
  br i1 %19, label %Vec_PtrSort.exit, label %20

20:                                               ; preds = %3
  %21 = getelementptr inbounds nuw i8, ptr %16, i64 8
  %22 = load ptr, ptr %21, align 8, !tbaa !31
  %23 = zext nneg i32 %18 to i64
  tail call void @qsort(ptr noundef %22, i64 noundef %23, i64 noundef 8, ptr noundef nonnull @Aig_ObjCompareIdIncrease) #11
  br label %Vec_PtrSort.exit

Vec_PtrSort.exit:                                 ; preds = %3, %20
  %24 = load ptr, ptr %7, align 8, !tbaa !42
  %25 = getelementptr inbounds nuw i8, ptr %24, i64 4
  %26 = load i32, ptr %25, align 4, !tbaa !40
  %27 = icmp slt i32 %26, 2
  br i1 %27, label %Vec_PtrSort.exit19, label %28

28:                                               ; preds = %Vec_PtrSort.exit
  %29 = getelementptr inbounds nuw i8, ptr %24, i64 8
  %30 = load ptr, ptr %29, align 8, !tbaa !31
  %31 = zext nneg i32 %26 to i64
  tail call void @qsort(ptr noundef %30, i64 noundef %31, i64 noundef 8, ptr noundef nonnull @Aig_ObjCompareIdIncrease) #11
  %.pre = load ptr, ptr %7, align 8, !tbaa !42
  %.phi.trans.insert = getelementptr i8, ptr %.pre, i64 4
  %.val1820.pre = load i32, ptr %.phi.trans.insert, align 4, !tbaa !40
  br label %Vec_PtrSort.exit19

Vec_PtrSort.exit19:                               ; preds = %Vec_PtrSort.exit, %28
  %.val1820 = phi i32 [ %26, %Vec_PtrSort.exit ], [ %.val1820.pre, %28 ]
  %32 = phi ptr [ %24, %Vec_PtrSort.exit ], [ %.pre, %28 ]
  %33 = icmp sgt i32 %.val1820, 0
  br i1 %33, label %.lr.ph, label %.critedge

.lr.ph:                                           ; preds = %Vec_PtrSort.exit19, %.lr.ph
  %indvars.iv = phi i64 [ %indvars.iv.next, %.lr.ph ], [ 0, %Vec_PtrSort.exit19 ]
  %34 = phi ptr [ %41, %.lr.ph ], [ %32, %Vec_PtrSort.exit19 ]
  %35 = getelementptr i8, ptr %34, i64 8
  %.val16 = load ptr, ptr %35, align 8, !tbaa !31
  %36 = getelementptr inbounds nuw ptr, ptr %.val16, i64 %indvars.iv
  %37 = load ptr, ptr %36, align 8, !tbaa !33
  %38 = getelementptr inbounds nuw i8, ptr %37, i64 24
  %39 = load i64, ptr %38, align 8
  %40 = and i64 %39, -17
  store i64 %40, ptr %38, align 8
  %indvars.iv.next = add nuw nsw i64 %indvars.iv, 1
  %41 = load ptr, ptr %7, align 8, !tbaa !42
  %42 = getelementptr i8, ptr %41, i64 4
  %.val18 = load i32, ptr %42, align 4, !tbaa !40
  %43 = sext i32 %.val18 to i64
  %44 = icmp slt i64 %indvars.iv.next, %43
  br i1 %44, label %.lr.ph, label %.critedge, !llvm.loop !43

.critedge:                                        ; preds = %.lr.ph, %Vec_PtrSort.exit19
  ret void
}